target datalayout = "e-m:e-p270:32:32-p271:32:32-p272:64:64-i64:64-i128:128-f80:128-n8:16:32:64-S128"
target triple = "x86_64-pc-linux-gnu"

%struct.diff_options = type { ptr, ptr, i32, i32, ptr, i32, ptr, i64, i64, ptr, ptr, ptr, ptr, %struct.diff_flags, i32, i32, i32, i32, i32, i32, i32, i32, i32, i32, i32, i32, i32, i32, i32, i32, i32, i32, i32, i32, i32, i32, ptr, i32, ptr, i32, i32, ptr, i64, i64, i32, i32, i32, i32, ptr, i32, i32, ptr, i32, i32, ptr, ptr, i32, [3 x i8], %struct.pathspec, ptr, ptr, ptr, ptr, ptr, ptr, ptr, ptr, i32, ptr, i32, i32, ptr, ptr, i32 }
%struct.diff_flags = type { i32, i32, i32, i32, i32, i32, i32, i32, i32, i32, i32, i32, i32, i32, i32, i32, i32, i32, i32, i32, i32, i32, i32, i32, i32, i32, i32, i32, i32, i32, i32, i32, i32, i32, i32 }
%struct.pathspec = type { i32, i8, i32, i32, ptr }
%struct.diff_words_style_elem = type { ptr, ptr, ptr }
%struct.s_mmfile = type { ptr, i64 }
%struct.diff_words_data = type { %struct.diff_words_buffer, %struct.diff_words_buffer, ptr, i32, ptr, ptr, i32, ptr }
%struct.diff_words_buffer = type { %struct.s_mmfile, i64, ptr, i32, i32 }
%struct.diff_words_style = type { i32, %struct.diff_words_style_elem, %struct.diff_words_style_elem, %struct.diff_words_style_elem, ptr }
%struct.diff_words_orig = type { ptr, ptr }

@.str.41 = private unnamed_addr constant [1 x i8] zeroinitializer, align 1

; Function Attrs: nounwind uwtable
define internal i32 @color_words_output_graph_prefix(ptr noundef %0) #0 {
  %2 = alloca i32, align 4
  %3 = alloca ptr, align 8
  store ptr %0, ptr %3, align 8, !tbaa !584
  %4 = load ptr, ptr %3, align 8, !tbaa !584
  %5 = getelementptr inbounds nuw %struct.diff_words_data, ptr %4, i32 0, i32 3
  %6 = load i32, ptr %5, align 8, !tbaa !587
  %7 = icmp eq i32 %6, 0
  br i1 %7, label %8, label %18

8:                                                ; preds = %1
  %9 = load ptr, ptr %3, align 8, !tbaa !584
  %10 = getelementptr inbounds nuw %struct.diff_words_data, ptr %9, i32 0, i32 2
  %11 = load ptr, ptr %10, align 8, !tbaa !586
  %12 = load ptr, ptr %3, align 8, !tbaa !584
  %13 = getelementptr inbounds nuw %struct.diff_words_data, ptr %12, i32 0, i32 1
  %14 = getelementptr inbounds nuw %struct.diff_words_buffer, ptr %13, i32 0, i32 0
  %15 = getelementptr inbounds nuw %struct.s_mmfile, ptr %14, i32 0, i32 0
  %16 = load ptr, ptr %15, align 8, !tbaa !554
  %17 = icmp eq ptr %11, %16
  br i1 %17, label %36, label %18

18:                                               ; preds = %8, %1
  %19 = load ptr, ptr %3, align 8, !tbaa !584
  %20 = getelementptr inbounds nuw %struct.diff_words_data, ptr %19, i32 0, i32 2
  %21 = load ptr, ptr %20, align 8, !tbaa !586
  %22 = load ptr, ptr %3, align 8, !tbaa !584
  %23 = getelementptr inbounds nuw %struct.diff_words_data, ptr %22, i32 0, i32 1
  %24 = getelementptr inbounds nuw %struct.diff_words_buffer, ptr %23, i32 0, i32 0
  %25 = getelementptr inbounds nuw %struct.s_mmfile, ptr %24, i32 0, i32 0
  %26 = load ptr, ptr %25, align 8, !tbaa !554
  %27 = icmp ugt ptr %21, %26
  br i1 %27, label %28, label %37

28:                                               ; preds = %18
  %29 = load ptr, ptr %3, align 8, !tbaa !584
  %30 = getelementptr inbounds nuw %struct.diff_words_data, ptr %29, i32 0, i32 2
  %31 = load ptr, ptr %30, align 8, !tbaa !586
  %32 = getelementptr inbounds i8, ptr %31, i64 -1
  %33 = load i8, ptr %32, align 1, !tbaa !48
  %34 = sext i8 %33 to i32
  %35 = icmp eq i32 %34, 10
  br i1 %35, label %36, label %37

36:                                               ; preds = %28, %8
  store i32 1, ptr %2, align 4
  br label %38

37:                                               ; preds = %28, %18
  store i32 0, ptr %2, align 4
  br label %38

38:                                               ; preds = %37, %36
  %39 = load i32, ptr %2, align 4
  ret i32 %39
}

; Function Attrs: nounwind uwtable
define dso_local ptr @diff_line_prefix(ptr noundef %0) #0 {
  %2 = alloca ptr, align 8
  store ptr %0, ptr %2, align 8, !tbaa !34
  %3 = load ptr, ptr %2, align 8, !tbaa !34
  %4 = getelementptr inbounds nuw %struct.diff_options, ptr %3, i32 0, i32 65
  %5 = load ptr, ptr %4, align 8, !tbaa !69
  %6 = icmp ne ptr %5, null
  br i1 %6, label %7, label %16

7:                                                ; preds = %1
  %8 = load ptr, ptr %2, align 8, !tbaa !34
  %9 = getelementptr inbounds nuw %struct.diff_options, ptr %8, i32 0, i32 65
  %10 = load ptr, ptr %9, align 8, !tbaa !69
  %11 = load ptr, ptr %2, align 8, !tbaa !34
  %12 = load ptr, ptr %2, align 8, !tbaa !34
  %13 = getelementptr inbounds nuw %struct.diff_options, ptr %12, i32 0, i32 66
  %14 = load ptr, ptr %13, align 8, !tbaa !70
  %15 = call ptr %10(ptr noundef %11, ptr noundef %14)
  br label %17

16:                                               ; preds = %1
  br label %17

17:                                               ; preds = %16, %7
  %18 = phi ptr [ %15, %7 ], [ @.str.41, %16 ]
  ret ptr %18
}

; Function Attrs: nounwind uwtable
define internal void @fn_out_diff_words_aux(ptr noundef %0, i64 noundef %1, i64 noundef %2, i64 noundef %3, i64 noundef %4, ptr noundef %5, i64 noundef %6) #0 {
  %8 = alloca ptr, align 8
  %9 = alloca i64, align 8
  %10 = alloca i64, align 8
  %11 = alloca i64, align 8
  %12 = alloca i64, align 8
  %13 = alloca ptr, align 8
  %14 = alloca i64, align 8
  %15 = alloca ptr, align 8
  %16 = alloca ptr, align 8
  %17 = alloca ptr, align 8
  %18 = alloca ptr, align 8
  %19 = alloca ptr, align 8
  %20 = alloca ptr, align 8
  %21 = alloca ptr, align 8
  %22 = alloca ptr, align 8
  store ptr %0, ptr %8, align 8, !tbaa !18
  store i64 %1, ptr %9, align 8, !tbaa !11
  store i64 %2, ptr %10, align 8, !tbaa !11
  store i64 %3, ptr %11, align 8, !tbaa !11
  store i64 %4, ptr %12, align 8, !tbaa !11
  store ptr %5, ptr %13, align 8, !tbaa !9
  store i64 %6, ptr %14, align 8, !tbaa !11
  call void @llvm.lifetime.start.p0(i64 8, ptr %15) #10
  %23 = load ptr, ptr %8, align 8, !tbaa !18
  store ptr %23, ptr %15, align 8, !tbaa !584
  call void @llvm.lifetime.start.p0(i64 8, ptr %16) #10
  %24 = load ptr, ptr %15, align 8, !tbaa !584
  %25 = getelementptr inbounds nuw %struct.diff_words_data, ptr %24, i32 0, i32 7
  %26 = load ptr, ptr %25, align 8, !tbaa !546
  store ptr %26, ptr %16, align 8, !tbaa !548
  call void @llvm.lifetime.start.p0(i64 8, ptr %17) #10
  call void @llvm.lifetime.start.p0(i64 8, ptr %18) #10
  call void @llvm.lifetime.start.p0(i64 8, ptr %19) #10
  call void @llvm.lifetime.start.p0(i64 8, ptr %20) #10
  call void @llvm.lifetime.start.p0(i64 8, ptr %21) #10
  %27 = load ptr, ptr %15, align 8, !tbaa !584
  %28 = getelementptr inbounds nuw %struct.diff_words_data, ptr %27, i32 0, i32 4
  %29 = load ptr, ptr %28, align 8, !tbaa !541
  store ptr %29, ptr %21, align 8, !tbaa !34
  call void @llvm.lifetime.start.p0(i64 8, ptr %22) #10
  %30 = load ptr, ptr %21, align 8, !tbaa !34
  %31 = call ptr @diff_line_prefix(ptr noundef %30)
  store ptr %31, ptr %22, align 8, !tbaa !9
  %32 = load i64, ptr %10, align 8, !tbaa !11
  %33 = icmp ne i64 %32, 0
  br i1 %33, label %34, label %54

34:                                               ; preds = %7
  %35 = load ptr, ptr %15, align 8, !tbaa !584
  %36 = getelementptr inbounds nuw %struct.diff_words_data, ptr %35, i32 0, i32 0
  %37 = getelementptr inbounds nuw %struct.diff_words_buffer, ptr %36, i32 0, i32 2
  %38 = load ptr, ptr %37, align 8, !tbaa !553
  %39 = load i64, ptr %9, align 8, !tbaa !11
  %40 = getelementptr inbounds %struct.diff_words_orig, ptr %38, i64 %39
  %41 = getelementptr inbounds nuw %struct.diff_words_orig, ptr %40, i32 0, i32 0
  %42 = load ptr, ptr %41, align 8, !tbaa !598
  store ptr %42, ptr %17, align 8, !tbaa !9
  %43 = load ptr, ptr %15, align 8, !tbaa !584
  %44 = getelementptr inbounds nuw %struct.diff_words_data, ptr %43, i32 0, i32 0
  %45 = getelementptr inbounds nuw %struct.diff_words_buffer, ptr %44, i32 0, i32 2
  %46 = load ptr, ptr %45, align 8, !tbaa !553
  %47 = load i64, ptr %9, align 8, !tbaa !11
  %48 = load i64, ptr %10, align 8, !tbaa !11
  %49 = add nsw i64 %47, %48
  %50 = sub nsw i64 %49, 1
  %51 = getelementptr inbounds %struct.diff_words_orig, ptr %46, i64 %50
  %52 = getelementptr inbounds nuw %struct.diff_words_orig, ptr %51, i32 0, i32 1
  %53 = load ptr, ptr %52, align 8, !tbaa !596
  store ptr %53, ptr %18, align 8, !tbaa !9
  br label %63

54:                                               ; preds = %7
  %55 = load ptr, ptr %15, align 8, !tbaa !584
  %56 = getelementptr inbounds nuw %struct.diff_words_data, ptr %55, i32 0, i32 0
  %57 = getelementptr inbounds nuw %struct.diff_words_buffer, ptr %56, i32 0, i32 2
  %58 = load ptr, ptr %57, align 8, !tbaa !553
  %59 = load i64, ptr %9, align 8, !tbaa !11
  %60 = getelementptr inbounds %struct.diff_words_orig, ptr %58, i64 %59
  %61 = getelementptr inbounds nuw %struct.diff_words_orig, ptr %60, i32 0, i32 1
  %62 = load ptr, ptr %61, align 8, !tbaa !596
  store ptr %62, ptr %18, align 8, !tbaa !9
  store ptr %62, ptr %17, align 8, !tbaa !9
  br label %63

63:                                               ; preds = %54, %34
  %64 = load i64, ptr %12, align 8, !tbaa !11
  %65 = icmp ne i64 %64, 0
  br i1 %65, label %66, label %86

66:                                               ; preds = %63
  %67 = load ptr, ptr %15, align 8, !tbaa !584
  %68 = getelementptr inbounds nuw %struct.diff_words_data, ptr %67, i32 0, i32 1
  %69 = getelementptr inbounds nuw %struct.diff_words_buffer, ptr %68, i32 0, i32 2
  %70 = load ptr, ptr %69, align 8, !tbaa !555
  %71 = load i64, ptr %11, align 8, !tbaa !11
  %72 = getelementptr inbounds %struct.diff_words_orig, ptr %70, i64 %71
  %73 = getelementptr inbounds nuw %struct.diff_words_orig, ptr %72, i32 0, i32 0
  %74 = load ptr, ptr %73, align 8, !tbaa !598
  store ptr %74, ptr %19, align 8, !tbaa !9
  %75 = load ptr, ptr %15, align 8, !tbaa !584
  %76 = getelementptr inbounds nuw %struct.diff_words_data, ptr %75, i32 0, i32 1
  %77 = getelementptr inbounds nuw %struct.diff_words_buffer, ptr %76, i32 0, i32 2
  %78 = load ptr, ptr %77, align 8, !tbaa !555
  %79 = load i64, ptr %11, align 8, !tbaa !11
  %80 = load i64, ptr %12, align 8, !tbaa !11
  %81 = add nsw i64 %79, %80
  %82 = sub nsw i64 %81, 1
  %83 = getelementptr inbounds %struct.diff_words_orig, ptr %78, i64 %82
  %84 = getelementptr inbounds nuw %struct.diff_words_orig, ptr %83, i32 0, i32 1
  %85 = load ptr, ptr %84, align 8, !tbaa !596
  store ptr %85, ptr %20, align 8, !tbaa !9
  br label %95

86:                                               ; preds = %63
  %87 = load ptr, ptr %15, align 8, !tbaa !584
  %88 = getelementptr inbounds nuw %struct.diff_words_data, ptr %87, i32 0, i32 1
  %89 = getelementptr inbounds nuw %struct.diff_words_buffer, ptr %88, i32 0, i32 2
  %90 = load ptr, ptr %89, align 8, !tbaa !555
  %91 = load i64, ptr %11, align 8, !tbaa !11
  %92 = getelementptr inbounds %struct.diff_words_orig, ptr %90, i64 %91
  %93 = getelementptr inbounds nuw %struct.diff_words_orig, ptr %92, i32 0, i32 1
  %94 = load ptr, ptr %93, align 8, !tbaa !596
  store ptr %94, ptr %20, align 8, !tbaa !9
  store ptr %94, ptr %19, align 8, !tbaa !9
  br label %95

95:                                               ; preds = %86, %66
  %96 = load ptr, ptr %15, align 8, !tbaa !584
  %97 = call i32 @color_words_output_graph_prefix(ptr noundef %96)
  %98 = icmp ne i32 %97, 0
  br i1 %98, label %99, label %107

99:                                               ; preds = %95
  %100 = load ptr, ptr %22, align 8, !tbaa !9
  %101 = load ptr, ptr %15, align 8, !tbaa !584
  %102 = getelementptr inbounds nuw %struct.diff_words_data, ptr %101, i32 0, i32 4
  %103 = load ptr, ptr %102, align 8, !tbaa !541
  %104 = getelementptr inbounds nuw %struct.diff_options, ptr %103, i32 0, i32 55
  %105 = load ptr, ptr %104, align 8, !tbaa !72
  %106 = call i32 @fputs(ptr noundef %100, ptr noundef %105)
  br label %107

107:                                              ; preds = %99, %95
  %108 = load ptr, ptr %15, align 8, !tbaa !584
  %109 = getelementptr inbounds nuw %struct.diff_words_data, ptr %108, i32 0, i32 2
  %110 = load ptr, ptr %109, align 8, !tbaa !586
  %111 = load ptr, ptr %19, align 8, !tbaa !9
  %112 = icmp ne ptr %110, %111
  br i1 %112, label %113, label %133

113:                                              ; preds = %107
  %114 = load ptr, ptr %15, align 8, !tbaa !584
  %115 = getelementptr inbounds nuw %struct.diff_words_data, ptr %114, i32 0, i32 4
  %116 = load ptr, ptr %115, align 8, !tbaa !541
  %117 = load ptr, ptr %16, align 8, !tbaa !548
  %118 = getelementptr inbounds nuw %struct.diff_words_style, ptr %117, i32 0, i32 3
  %119 = load ptr, ptr %16, align 8, !tbaa !548
  %120 = getelementptr inbounds nuw %struct.diff_words_style, ptr %119, i32 0, i32 4
  %121 = load ptr, ptr %120, align 8, !tbaa !585
  %122 = load ptr, ptr %19, align 8, !tbaa !9
  %123 = load ptr, ptr %15, align 8, !tbaa !584
  %124 = getelementptr inbounds nuw %struct.diff_words_data, ptr %123, i32 0, i32 2
  %125 = load ptr, ptr %124, align 8, !tbaa !586
  %126 = ptrtoint ptr %122 to i64
  %127 = ptrtoint ptr %125 to i64
  %128 = sub i64 %126, %127
  %129 = load ptr, ptr %15, align 8, !tbaa !584
  %130 = getelementptr inbounds nuw %struct.diff_words_data, ptr %129, i32 0, i32 2
  %131 = load ptr, ptr %130, align 8, !tbaa !586
  %132 = call i32 @fn_out_diff_words_write_helper(ptr noundef %116, ptr noundef %118, ptr noundef %121, i64 noundef %128, ptr noundef %131)
  br label %133

133:                                              ; preds = %113, %107
  %134 = load ptr, ptr %17, align 8, !tbaa !9
  %135 = load ptr, ptr %18, align 8, !tbaa !9
  %136 = icmp ne ptr %134, %135
  br i1 %136, label %137, label %153

137:                                              ; preds = %133
  %138 = load ptr, ptr %15, align 8, !tbaa !584
  %139 = getelementptr inbounds nuw %struct.diff_words_data, ptr %138, i32 0, i32 4
  %140 = load ptr, ptr %139, align 8, !tbaa !541
  %141 = load ptr, ptr %16, align 8, !tbaa !548
  %142 = getelementptr inbounds nuw %struct.diff_words_style, ptr %141, i32 0, i32 2
  %143 = load ptr, ptr %16, align 8, !tbaa !548
  %144 = getelementptr inbounds nuw %struct.diff_words_style, ptr %143, i32 0, i32 4
  %145 = load ptr, ptr %144, align 8, !tbaa !585
  %146 = load ptr, ptr %18, align 8, !tbaa !9
  %147 = load ptr, ptr %17, align 8, !tbaa !9
  %148 = ptrtoint ptr %146 to i64
  %149 = ptrtoint ptr %147 to i64
  %150 = sub i64 %148, %149
  %151 = load ptr, ptr %17, align 8, !tbaa !9
  %152 = call i32 @fn_out_diff_words_write_helper(ptr noundef %140, ptr noundef %142, ptr noundef %145, i64 noundef %150, ptr noundef %151)
  br label %153

153:                                              ; preds = %137, %133
  %154 = load ptr, ptr %19, align 8, !tbaa !9
  %155 = load ptr, ptr %20, align 8, !tbaa !9
  %156 = icmp ne ptr %154, %155
  br i1 %156, label %157, label %173

157:                                              ; preds = %153
  %158 = load ptr, ptr %15, align 8, !tbaa !584
  %159 = getelementptr inbounds nuw %struct.diff_words_data, ptr %158, i32 0, i32 4
  %160 = load ptr, ptr %159, align 8, !tbaa !541
  %161 = load ptr, ptr %16, align 8, !tbaa !548
  %162 = getelementptr inbounds nuw %struct.diff_words_style, ptr %161, i32 0, i32 1
  %163 = load ptr, ptr %16, align 8, !tbaa !548
  %164 = getelementptr inbounds nuw %struct.diff_words_style, ptr %163, i32 0, i32 4
  %165 = load ptr, ptr %164, align 8, !tbaa !585
  %166 = load ptr, ptr %20, align 8, !tbaa !9
  %167 = load ptr, ptr %19, align 8, !tbaa !9
  %168 = ptrtoint ptr %166 to i64
  %169 = ptrtoint ptr %167 to i64
  %170 = sub i64 %168, %169
  %171 = load ptr, ptr %19, align 8, !tbaa !9
  %172 = call i32 @fn_out_diff_words_write_helper(ptr noundef %160, ptr noundef %162, ptr noundef %165, i64 noundef %170, ptr noundef %171)
  br label %173

173:                                              ; preds = %157, %153
  %174 = load ptr, ptr %20, align 8, !tbaa !9
  %175 = load ptr, ptr %15, align 8, !tbaa !584
  %176 = getelementptr inbounds nuw %struct.diff_words_data, ptr %175, i32 0, i32 2
  store ptr %174, ptr %176, align 8, !tbaa !586
  %177 = load i64, ptr %9, align 8, !tbaa !11
  %178 = trunc i64 %177 to i32
  %179 = load ptr, ptr %15, align 8, !tbaa !584
  %180 = getelementptr inbounds nuw %struct.diff_words_data, ptr %179, i32 0, i32 3
  store i32 %178, ptr %180, align 8, !tbaa !587
  call void @llvm.lifetime.end.p0(i64 8, ptr %22) #10
  call void @llvm.lifetime.end.p0(i64 8, ptr %21) #10
  call void @llvm.lifetime.end.p0(i64 8, ptr %20) #10
  call void @llvm.lifetime.end.p0(i64 8, ptr %19) #10
  call void @llvm.lifetime.end.p0(i64 8, ptr %18) #10
  call void @llvm.lifetime.end.p0(i64 8, ptr %17) #10
  call void @llvm.lifetime.end.p0(i64 8, ptr %16) #10
  call void @llvm.lifetime.end.p0(i64 8, ptr %15) #10
  ret void
}