; Function Attrs: nounwind uwtable
define internal void @fn_out_diff_words_aux(ptr noundef captures(none) %0, i64 noundef %1, i64 noundef %2, i64 noundef %3, i64 noundef %4, ptr readnone captures(none) %5, i64 %6) #0 {
  %8 = getelementptr inbounds nuw i8, ptr %0, i64 120
  %9 = load ptr, ptr %8, align 8, !tbaa !463
  %10 = getelementptr inbounds nuw i8, ptr %0, i64 96
  %11 = load ptr, ptr %10, align 8, !tbaa !456
  %12 = getelementptr inbounds nuw i8, ptr %11, i64 528
  %13 = load ptr, ptr %12, align 8, !tbaa !61
  %.not.i = icmp eq ptr %13, null
  br i1 %.not.i, label %diff_line_prefix.exit, label %14

14:                                               ; preds = %7
  %15 = getelementptr inbounds nuw i8, ptr %11, i64 536
  %16 = load ptr, ptr %15, align 8, !tbaa !62
  %17 = tail call ptr %13(ptr noundef nonnull %11, ptr noundef %16) #32
  br label %diff_line_prefix.exit

diff_line_prefix.exit:                            ; preds = %7, %14
  %18 = phi ptr [ %17, %14 ], [ @.str.41, %7 ]
  %.not = icmp eq i64 %2, 0
  %19 = getelementptr inbounds nuw i8, ptr %0, i64 24
  %20 = load ptr, ptr %19, align 8, !tbaa !468
  br i1 %.not, label %27, label %21

21:                                               ; preds = %diff_line_prefix.exit
  %22 = getelementptr inbounds %struct.diff_words_orig, ptr %20, i64 %1
  %23 = load ptr, ptr %22, align 8, !tbaa !509
  %24 = getelementptr %struct.diff_words_orig, ptr %22, i64 %2
  %25 = getelementptr i8, ptr %24, i64 -8
  %26 = load ptr, ptr %25, align 8, !tbaa !507
  br label %30

27:                                               ; preds = %diff_line_prefix.exit
  %28 = getelementptr inbounds %struct.diff_words_orig, ptr %20, i64 %1, i32 1
  %29 = load ptr, ptr %28, align 8, !tbaa !507
  br label %30

30:                                               ; preds = %27, %21
  %.050 = phi ptr [ %26, %21 ], [ %29, %27 ]
  %.0 = phi ptr [ %23, %21 ], [ %29, %27 ]
  %.not56 = icmp eq i64 %4, 0
  %31 = getelementptr inbounds nuw i8, ptr %0, i64 64
  %32 = load ptr, ptr %31, align 8, !tbaa !470
  br i1 %.not56, label %39, label %33

33:                                               ; preds = %30
  %34 = getelementptr inbounds %struct.diff_words_orig, ptr %32, i64 %3
  %35 = load ptr, ptr %34, align 8, !tbaa !509
  %36 = getelementptr %struct.diff_words_orig, ptr %34, i64 %4
  %37 = getelementptr i8, ptr %36, i64 -8
  %38 = load ptr, ptr %37, align 8, !tbaa !507
  br label %42

39:                                               ; preds = %30
  %40 = getelementptr inbounds %struct.diff_words_orig, ptr %32, i64 %3, i32 1
  %41 = load ptr, ptr %40, align 8, !tbaa !507
  br label %42

42:                                               ; preds = %39, %33
  %.052 = phi ptr [ %35, %33 ], [ %41, %39 ]
  %.051 = phi ptr [ %38, %33 ], [ %41, %39 ]
  %43 = getelementptr inbounds nuw i8, ptr %0, i64 88
  %44 = load i32, ptr %43, align 8, !tbaa !499
  %45 = icmp eq i32 %44, 0
  %46 = getelementptr inbounds nuw i8, ptr %0, i64 80
  %47 = load ptr, ptr %46, align 8, !tbaa !498
  %48 = getelementptr inbounds nuw i8, ptr %0, i64 40
  %49 = load ptr, ptr %48, align 8, !tbaa !469
  %50 = icmp eq ptr %47, %49
  %or.cond.i = select i1 %45, i1 %50, i1 false
  br i1 %or.cond.i, label %56, label %._crit_edge.i

._crit_edge.i:                                    ; preds = %42
  %51 = icmp ugt ptr %47, %49
  br i1 %51, label %52, label %color_words_output_graph_prefix.exit

52:                                               ; preds = %._crit_edge.i
  %53 = getelementptr inbounds i8, ptr %47, i64 -1
  %54 = load i8, ptr %53, align 1, !tbaa !38
  %55 = icmp eq i8 %54, 10
  br i1 %55, label %56, label %color_words_output_graph_prefix.exit

56:                                               ; preds = %52, %42
  %57 = load ptr, ptr %10, align 8, !tbaa !456
  %58 = getelementptr inbounds nuw i8, ptr %57, i64 440
  %59 = load ptr, ptr %58, align 8, !tbaa !63
  %60 = tail call i32 @fputs(ptr noundef %18, ptr noundef %59)
  %.pre = load ptr, ptr %46, align 8, !tbaa !498
  br label %color_words_output_graph_prefix.exit

color_words_output_graph_prefix.exit:             ; preds = %52, %._crit_edge.i, %56
  %61 = phi ptr [ %47, %52 ], [ %47, %._crit_edge.i ], [ %.pre, %56 ]
  %.not58 = icmp eq ptr %61, %.052
  br i1 %.not58, label %70, label %62

62:                                               ; preds = %color_words_output_graph_prefix.exit
  %63 = load ptr, ptr %10, align 8, !tbaa !456
  %64 = getelementptr inbounds nuw i8, ptr %9, i64 56
  %65 = getelementptr inbounds nuw i8, ptr %9, i64 80
  %66 = load ptr, ptr %65, align 8, !tbaa !497
  %67 = ptrtoint ptr %.052 to i64
  %68 = ptrtoint ptr %61 to i64
  %69 = sub i64 %67, %68
  tail call fastcc void @fn_out_diff_words_write_helper(ptr noundef %63, ptr noundef nonnull %64, ptr noundef %66, i64 noundef %69, ptr noundef %61)
  br label %70

70:                                               ; preds = %62, %color_words_output_graph_prefix.exit
  %.not59 = icmp eq ptr %.0, %.050
  br i1 %.not59, label %79, label %71

71:                                               ; preds = %70
  %72 = load ptr, ptr %10, align 8, !tbaa !456
  %73 = getelementptr inbounds nuw i8, ptr %9, i64 32
  %74 = getelementptr inbounds nuw i8, ptr %9, i64 80
  %75 = load ptr, ptr %74, align 8, !tbaa !497
  %76 = ptrtoint ptr %.050 to i64
  %77 = ptrtoint ptr %.0 to i64
  %78 = sub i64 %76, %77
  tail call fastcc void @fn_out_diff_words_write_helper(ptr noundef %72, ptr noundef nonnull %73, ptr noundef %75, i64 noundef %78, ptr noundef %.0)
  br label %79

79:                                               ; preds = %71, %70
  %.not60 = icmp eq ptr %.052, %.051
  br i1 %.not60, label %88, label %80

80:                                               ; preds = %79
  %81 = load ptr, ptr %10, align 8, !tbaa !456
  %82 = getelementptr inbounds nuw i8, ptr %9, i64 8
  %83 = getelementptr inbounds nuw i8, ptr %9, i64 80
  %84 = load ptr, ptr %83, align 8, !tbaa !497
  %85 = ptrtoint ptr %.051 to i64
  %86 = ptrtoint ptr %.052 to i64
  %87 = sub i64 %85, %86
  tail call fastcc void @fn_out_diff_words_write_helper(ptr noundef %81, ptr noundef nonnull %82, ptr noundef %84, i64 noundef %87, ptr noundef %.052)
  br label %88

88:                                               ; preds = %80, %79
  store ptr %.051, ptr %46, align 8, !tbaa !498
  %89 = trunc i64 %1 to i32
  store i32 %89, ptr %43, align 8, !tbaa !499
  ret void
}